; Function Attrs: mustprogress nounwind sspstrong uwtable
define void @_ZN3tbb6detail2r115runtime_warningEPKcz(ptr noundef %0, ...) local_unnamed_addr #0 personality ptr @__gxx_personality_v0 {
  %2 = alloca [1024 x i8], align 16
  %3 = alloca [1 x %struct.__va_list_tag], align 16
  call void @llvm.lifetime.start.p0(i64 1024, ptr nonnull %2) #15
  call void @llvm.memset.p0.i64(ptr noundef nonnull align 16 dereferenceable(1024) %2, i8 noundef 0, i64 noundef 1024, i1 noundef false) #15
  call void @llvm.lifetime.start.p0(i64 24, ptr nonnull %3) #15
  call void @llvm.va_start.p0(ptr nonnull %3)
  %4 = invoke i32 @__vsnprintf_chk(ptr noundef nonnull %2, i64 noundef 1023, i32 noundef 1, i64 noundef 1024, ptr noundef %0, ptr noundef nonnull %3)
          to label %vsnprintf.inline.exit unwind label %5

5:                                                ; preds = %1
  %6 = landingpad { ptr, i32 }
          catch ptr null
  %7 = extractvalue { ptr, i32 } %6, 0
  call void @__clang_call_terminate(ptr %7) #17
  unreachable

vsnprintf.inline.exit:                            ; preds = %1
  call void @llvm.va_end.p0(ptr nonnull %3)
  %8 = load ptr, ptr @stderr, align 8, !tbaa !19
  %9 = call i32 (ptr, ptr, ...) @fprintf(ptr noundef %8, ptr noundef nonnull @.str, ptr noundef nonnull %2) #18
  call void @llvm.lifetime.end.p0(i64 24, ptr nonnull %3) #15
  call void @llvm.lifetime.end.p0(i64 1024, ptr nonnull %2) #15
  ret void
}